target datalayout = "e-m:e-p270:32:32-p271:32:32-p272:64:64-i64:64-i128:128-f80:128-n8:16:32:64-S128"
target triple = "x86_64-pc-linux-gnu"

%struct.AVRational = type { i32, i32 }

@check_fps.supported_fps = internal constant [9 x i32] [i32 24, i32 25, i32 30, i32 48, i32 50, i32 60, i32 100, i32 120, i32 150], align 16

; Function Attrs: nounwind uwtable
define internal i32 @check_fps(i32 noundef %0) #0 {
  %2 = alloca i32, align 4
  %3 = alloca i32, align 4
  %4 = alloca i32, align 4
  %5 = alloca i32, align 4
  store i32 %0, ptr %3, align 4, !tbaa !4
  call void @llvm.lifetime.start.p0(i64 4, ptr %4) #8
  store i32 0, ptr %4, align 4, !tbaa !4
  br label %6

6:                                                ; preds = %19, %1
  %7 = load i32, ptr %4, align 4, !tbaa !4
  %8 = sext i32 %7 to i64
  %9 = icmp ult i64 %8, 9
  br i1 %9, label %10, label %22

10:                                               ; preds = %6
  %11 = load i32, ptr %3, align 4, !tbaa !4
  %12 = load i32, ptr %4, align 4, !tbaa !4
  %13 = sext i32 %12 to i64
  %14 = getelementptr inbounds [9 x i32], ptr @check_fps.supported_fps, i64 0, i64 %13
  %15 = load i32, ptr %14, align 4, !tbaa !4
  %16 = icmp eq i32 %11, %15
  br i1 %16, label %17, label %18

17:                                               ; preds = %10
  store i32 0, ptr %2, align 4
  store i32 1, ptr %5, align 4
  br label %23

18:                                               ; preds = %10
  br label %19

19:                                               ; preds = %18
  %20 = load i32, ptr %4, align 4, !tbaa !4
  %21 = add nsw i32 %20, 1
  store i32 %21, ptr %4, align 4, !tbaa !4
  br label %6, !llvm.loop !21

22:                                               ; preds = %6
  store i32 -1, ptr %2, align 4
  store i32 1, ptr %5, align 4
  br label %23

23:                                               ; preds = %22, %17
  call void @llvm.lifetime.end.p0(i64 4, ptr %4) #8
  %24 = load i32, ptr %2, align 4
  ret i32 %24
}

; Function Attrs: nounwind uwtable
define internal i32 @fps_from_frame_rate(i64 %0) #0 {
  %2 = alloca i32, align 4
  %3 = alloca %struct.AVRational, align 4
  store i64 %0, ptr %3, align 4
  %4 = getelementptr inbounds nuw %struct.AVRational, ptr %3, i32 0, i32 1
  %5 = load i32, ptr %4, align 4, !tbaa !16
  %6 = icmp ne i32 %5, 0
  br i1 %6, label %7, label %11

7:                                                ; preds = %1
  %8 = getelementptr inbounds nuw %struct.AVRational, ptr %3, i32 0, i32 0
  %9 = load i32, ptr %8, align 4, !tbaa !15
  %10 = icmp ne i32 %9, 0
  br i1 %10, label %12, label %11

11:                                               ; preds = %7, %1
  store i32 -1, ptr %2, align 4
  br label %26

12:                                               ; preds = %7
  %13 = getelementptr inbounds nuw %struct.AVRational, ptr %3, i32 0, i32 0
  %14 = load i32, ptr %13, align 4, !tbaa !15
  %15 = sext i32 %14 to i64
  %16 = getelementptr inbounds nuw %struct.AVRational, ptr %3, i32 0, i32 1
  %17 = load i32, ptr %16, align 4, !tbaa !16
  %18 = sext i32 %17 to i64
  %19 = sdiv i64 %18, 2
  %20 = add nsw i64 %15, %19
  %21 = getelementptr inbounds nuw %struct.AVRational, ptr %3, i32 0, i32 1
  %22 = load i32, ptr %21, align 4, !tbaa !16
  %23 = sext i32 %22 to i64
  %24 = sdiv i64 %20, %23
  %25 = trunc i64 %24 to i32
  store i32 %25, ptr %2, align 4
  br label %26

26:                                               ; preds = %12, %11
  %27 = load i32, ptr %2, align 4
  ret i32 %27
}

; Function Attrs: nounwind uwtable
define i32 @av_timecode_check_frame_rate(i64 %0) #0 {
  %2 = alloca %struct.AVRational, align 4
  store i64 %0, ptr %2, align 4
  %3 = load i64, ptr %2, align 4
  %4 = call i32 @fps_from_frame_rate(i64 %3)
  %5 = call i32 @check_fps(i32 noundef %4)
  ret i32 %5
}