; Function Attrs: nofree norecurse nosync nounwind memory(none) uwtable
define range(i32 -1, 1) i32 @av_timecode_check_frame_rate(i64 %0) local_unnamed_addr #7 {
  %2 = icmp ugt i64 %0, 4294967295
  %3 = and i64 %0, 4294967295
  %4 = icmp ne i64 %3, 0
  %or.cond.i = and i1 %2, %4
  br i1 %or.cond.i, label %5, label %fps_from_frame_rate.exit

5:                                                ; preds = %1
  %sext.i = shl i64 %0, 32
  %6 = ashr exact i64 %sext.i, 32
  %7 = ashr i64 %0, 32
  %.lhs.trunc.i = trunc nsw i64 %7 to i32
  %8 = sdiv i32 %.lhs.trunc.i, 2
  %.sext.i = sext i32 %8 to i64
  %9 = add nsw i64 %6, %.sext.i
  %10 = sdiv i64 %9, %7
  %11 = trunc i64 %10 to i32
  br label %fps_from_frame_rate.exit

fps_from_frame_rate.exit:                         ; preds = %1, %5
  %.0.i = phi i32 [ %11, %5 ], [ -1, %1 ]
  br label %13

12:                                               ; preds = %13
  %indvars.iv.next.i = add nuw nsw i64 %indvars.iv.i, 1
  %exitcond.not.i = icmp eq i64 %indvars.iv.next.i, 9
  br i1 %exitcond.not.i, label %check_fps.exit, label %13, !llvm.loop !13

13:                                               ; preds = %12, %fps_from_frame_rate.exit
  %indvars.iv.i = phi i64 [ 0, %fps_from_frame_rate.exit ], [ %indvars.iv.next.i, %12 ]
  %14 = getelementptr inbounds nuw [9 x i32], ptr @check_fps.supported_fps, i64 0, i64 %indvars.iv.i
  %15 = load i32, ptr %14, align 4, !tbaa !12
  %16 = icmp eq i32 %.0.i, %15
  br i1 %16, label %check_fps.exit, label %12

check_fps.exit:                                   ; preds = %12, %13
  %.05.i = phi i32 [ 0, %13 ], [ -1, %12 ]
  ret i32 %.05.i
}